target datalayout = "e-m:e-p270:32:32-p271:32:32-p272:64:64-i64:64-i128:128-f80:128-n8:16:32:64-S128"
target triple = "x86_64-pc-linux-gnu"

%"class.clang::SourceLocation" = type { i32 }
%"class.clang::ObjCProtocolList" = type { %"class.clang::ObjCList.base", ptr }
%"class.clang::ObjCList.base" = type { %"class.clang::ObjCListBase.base" }
%"class.clang::ObjCListBase.base" = type <{ ptr, i32 }>
%"class.clang::DeclarationName" = type { i64 }
%"class.clang::ObjCContainerDecl" = type { %"class.clang::NamedDecl", %"class.clang::DeclContext", %"class.clang::SourceRange" }
%"class.clang::NamedDecl" = type { %"class.clang::Decl.base", %"class.clang::DeclarationName" }
%"class.clang::Decl.base" = type <{ ptr, %"class.llvm::PointerIntPair.337", %"class.llvm::PointerUnion", %"class.clang::SourceLocation", i32, i8 }>
%"class.llvm::PointerIntPair.337" = type { %"struct.llvm::detail::PunnedPointer.338" }
%"struct.llvm::detail::PunnedPointer.338" = type { [8 x i8] }
%"class.llvm::PointerUnion" = type { %"class.llvm::pointer_union_detail::PointerUnionMembers" }
%"class.llvm::pointer_union_detail::PointerUnionMembers" = type { %"class.llvm::pointer_union_detail::PointerUnionMembers.339" }
%"class.llvm::pointer_union_detail::PointerUnionMembers.339" = type { %"class.llvm::pointer_union_detail::PointerUnionMembers.340" }
%"class.llvm::pointer_union_detail::PointerUnionMembers.340" = type { %"class.llvm::PointerIntPair.341" }
%"class.llvm::PointerIntPair.341" = type { %"struct.llvm::detail::PunnedPointer.342" }
%"struct.llvm::detail::PunnedPointer.342" = type { [8 x i8] }
%"class.clang::DeclContext" = type { ptr, %union.anon.343, ptr, ptr }
%union.anon.343 = type { %"class.clang::DeclContext::RecordDeclBitfields" }
%"class.clang::DeclContext::RecordDeclBitfields" = type { i64 }
%"class.clang::SourceRange" = type { %"class.clang::SourceLocation", %"class.clang::SourceLocation" }
%"class.llvm::PointerUnion.351" = type { %"class.llvm::pointer_union_detail::PointerUnionMembers.352" }
%"class.llvm::pointer_union_detail::PointerUnionMembers.352" = type { %"class.llvm::pointer_union_detail::PointerUnionMembers.353" }
%"class.llvm::pointer_union_detail::PointerUnionMembers.353" = type { %"class.llvm::pointer_union_detail::PointerUnionMembers.354" }
%"class.llvm::pointer_union_detail::PointerUnionMembers.354" = type { %"class.llvm::PointerIntPair.355" }
%"class.llvm::PointerIntPair.355" = type { %"struct.llvm::detail::PunnedPointer.342" }
%"struct.clang::ObjCInterfaceDecl::DefinitionData" = type <{ ptr, ptr, %"class.clang::ObjCProtocolList", %"class.clang::ObjCList", ptr, ptr, i8, [3 x i8], i32, %"class.clang::SourceLocation", [4 x i8] }>
%"class.clang::ObjCList" = type { %"class.clang::ObjCListBase.base", [4 x i8] }
%"class.clang::ObjCInterfaceDecl" = type { %"class.clang::ObjCContainerDecl", %"class.clang::Redeclarable.358", ptr, ptr, %"class.llvm::PointerIntPair.359" }
%"class.clang::Redeclarable.358" = type { %"class.clang::Redeclarable<clang::ObjCInterfaceDecl>::DeclLink", ptr }
%"class.clang::Redeclarable<clang::ObjCInterfaceDecl>::DeclLink" = type { %"class.llvm::PointerUnion.351" }
%"class.llvm::PointerIntPair.359" = type { %"struct.llvm::detail::PunnedPointer.360" }
%"struct.llvm::detail::PunnedPointer.360" = type { [8 x i8] }

; Function Attrs: mustprogress nounwind uwtable
define linkonce_odr hidden noundef ptr @_ZNK5clang12RedeclarableINS_17ObjCInterfaceDeclEE20getNextRedeclarationEv(ptr noundef nonnull align 8 dereferenceable(16) %0) #0 comdat align 2 {
  %2 = alloca ptr, align 8
  store ptr %0, ptr %2, align 8
  %3 = load ptr, ptr %2, align 8
  %4 = getelementptr inbounds nuw %"class.clang::Redeclarable.358", ptr %3, i32 0, i32 0
  %5 = getelementptr inbounds i8, ptr %3, i64 -88
  %6 = call noundef ptr @_ZNK5clang12RedeclarableINS_17ObjCInterfaceDeclEE8DeclLink11getPreviousEPKS1_(ptr noundef nonnull align 8 dereferenceable(8) %4, ptr noundef %5)
  ret ptr %6
}

; Function Attrs: mustprogress nounwind uwtable
define linkonce_odr hidden noundef ptr @_ZNK5clang12RedeclarableINS_17ObjCInterfaceDeclEE12getFirstDeclEv(ptr noundef nonnull align 8 dereferenceable(16) %0) #0 comdat align 2 {
  %2 = alloca ptr, align 8
  store ptr %0, ptr %2, align 8
  %3 = load ptr, ptr %2, align 8
  %4 = getelementptr inbounds nuw %"class.clang::Redeclarable.358", ptr %3, i32 0, i32 1
  %5 = load ptr, ptr %4, align 8
  ret ptr %5
}

; Function Attrs: mustprogress nounwind uwtable
define linkonce_odr hidden noundef ptr @_ZN4llvm21PointerLikeTypeTraitsIPN5clang17ObjCInterfaceDecl14DefinitionDataEE18getFromVoidPointerEPv(ptr noundef %0) #0 comdat align 2 {
  %2 = alloca ptr, align 8
  store ptr %0, ptr %2, align 8
  %3 = load ptr, ptr %2, align 8
  ret ptr %3
}

; Function Attrs: mustprogress nounwind uwtable
define linkonce_odr hidden noundef i64 @_ZNK4llvm6detail13PunnedPointerIPN5clang17ObjCInterfaceDecl14DefinitionDataEE5asIntEv(ptr noundef nonnull align 8 dereferenceable(8) %0) #0 comdat align 2 {
  %2 = alloca ptr, align 8
  %3 = alloca i64, align 8
  store ptr %0, ptr %2, align 8
  %4 = load ptr, ptr %2, align 8
  store i64 0, ptr %3, align 8
  %5 = getelementptr inbounds nuw %"struct.llvm::detail::PunnedPointer.360", ptr %4, i32 0, i32 0
  %6 = getelementptr inbounds [8 x i8], ptr %5, i64 0, i64 0
  call void @llvm.memcpy.p0.p0.i64(ptr align 8 %3, ptr align 8 %6, i64 8, i1 false)
  %7 = load i64, ptr %3, align 8
  ret i64 %7
}

; Function Attrs: mustprogress nounwind uwtable
define linkonce_odr hidden noundef ptr @_ZNK5clang12RedeclarableINS_17ObjCInterfaceDeclEE17getMostRecentDeclEv(ptr noundef nonnull align 8 dereferenceable(16) %0) #0 comdat align 2 {
  %2 = alloca ptr, align 8
  store ptr %0, ptr %2, align 8
  %3 = load ptr, ptr %2, align 8
  %4 = call noundef ptr @_ZNK5clang12RedeclarableINS_17ObjCInterfaceDeclEE12getFirstDeclEv(ptr noundef nonnull align 8 dereferenceable(16) %3)
  %5 = getelementptr inbounds i8, ptr %4, i64 88
  %6 = call noundef ptr @_ZNK5clang12RedeclarableINS_17ObjCInterfaceDeclEE20getNextRedeclarationEv(ptr noundef nonnull align 8 dereferenceable(16) %5)
  ret ptr %6
}

; Function Attrs: mustprogress nounwind uwtable
define linkonce_odr hidden noundef ptr @_ZNK4llvm14PointerIntPairIPN5clang17ObjCInterfaceDecl14DefinitionDataELj1EbNS_21PointerLikeTypeTraitsIS4_EENS_18PointerIntPairInfoIS4_Lj1ES6_EEE14getOpaqueValueEv(ptr noundef nonnull align 8 dereferenceable(8) %0) #0 comdat align 2 {
  %2 = alloca ptr, align 8
  store ptr %0, ptr %2, align 8
  %3 = load ptr, ptr %2, align 8
  %4 = getelementptr inbounds nuw %"class.llvm::PointerIntPair.359", ptr %3, i32 0, i32 0
  %5 = call noundef i64 @_ZNK4llvm6detail13PunnedPointerIPN5clang17ObjCInterfaceDecl14DefinitionDataEE5asIntEv(ptr noundef nonnull align 8 dereferenceable(8) %4)
  %6 = inttoptr i64 %5 to ptr
  ret ptr %6
}

; Function Attrs: mustprogress nounwind uwtable
define linkonce_odr hidden noundef ptr @_ZN4llvm18PointerIntPairInfoIPN5clang17ObjCInterfaceDecl14DefinitionDataELj1ENS_21PointerLikeTypeTraitsIS4_EEE10getPointerEl(i64 noundef %0) #0 comdat align 2 {
  %2 = alloca i64, align 8
  store i64 %0, ptr %2, align 8
  %3 = load i64, ptr %2, align 8
  %4 = and i64 %3, -8
  %5 = inttoptr i64 %4 to ptr
  %6 = call noundef ptr @_ZN4llvm21PointerLikeTypeTraitsIPN5clang17ObjCInterfaceDecl14DefinitionDataEE18getFromVoidPointerEPv(ptr noundef %5)
  ret ptr %6
}

; Function Attrs: mustprogress nounwind uwtable
define linkonce_odr hidden noundef i64 @_ZNK4llvm6detail13PunnedPointerIPN5clang17ObjCInterfaceDecl14DefinitionDataEEcvlEv(ptr noundef nonnull align 8 dereferenceable(8) %0) #0 comdat align 2 {
  %2 = alloca ptr, align 8
  store ptr %0, ptr %2, align 8
  %3 = load ptr, ptr %2, align 8
  %4 = call noundef i64 @_ZNK4llvm6detail13PunnedPointerIPN5clang17ObjCInterfaceDecl14DefinitionDataEE5asIntEv(ptr noundef nonnull align 8 dereferenceable(8) %3)
  ret i64 %4
}

; Function Attrs: mustprogress nounwind uwtable
define linkonce_odr hidden noundef zeroext i1 @_ZNK5clang17ObjCInterfaceDecl13hasDefinitionEv(ptr noundef nonnull align 8 dereferenceable(128) %0) #0 comdat align 2 {
  %2 = alloca ptr, align 8
  store ptr %0, ptr %2, align 8
  %3 = load ptr, ptr %2, align 8
  %4 = getelementptr inbounds nuw %"class.clang::ObjCInterfaceDecl", ptr %3, i32 0, i32 4
  %5 = call noundef ptr @_ZNK4llvm14PointerIntPairIPN5clang17ObjCInterfaceDecl14DefinitionDataELj1EbNS_21PointerLikeTypeTraitsIS4_EENS_18PointerIntPairInfoIS4_Lj1ES6_EEE14getOpaqueValueEv(ptr noundef nonnull align 8 dereferenceable(8) %4)
  %6 = icmp ne ptr %5, null
  br i1 %6, label %10, label %7

7:                                                ; preds = %1
  %8 = getelementptr inbounds i8, ptr %3, i64 88
  %9 = call noundef ptr @_ZNK5clang12RedeclarableINS_17ObjCInterfaceDeclEE17getMostRecentDeclEv(ptr noundef nonnull align 8 dereferenceable(16) %8)
  br label %10

10:                                               ; preds = %7, %1
  %11 = getelementptr inbounds nuw %"class.clang::ObjCInterfaceDecl", ptr %3, i32 0, i32 4
  %12 = call noundef ptr @_ZNK4llvm14PointerIntPairIPN5clang17ObjCInterfaceDecl14DefinitionDataELj1EbNS_21PointerLikeTypeTraitsIS4_EENS_18PointerIntPairInfoIS4_Lj1ES6_EEE10getPointerEv(ptr noundef nonnull align 8 dereferenceable(8) %11)
  %13 = icmp ne ptr %12, null
  ret i1 %13
}

; Function Attrs: mustprogress nounwind uwtable
define linkonce_odr hidden noundef ptr @_ZNK4llvm14PointerIntPairIPN5clang17ObjCInterfaceDecl14DefinitionDataELj1EbNS_21PointerLikeTypeTraitsIS4_EENS_18PointerIntPairInfoIS4_Lj1ES6_EEE10getPointerEv(ptr noundef nonnull align 8 dereferenceable(8) %0) #0 comdat align 2 {
  %2 = alloca ptr, align 8
  store ptr %0, ptr %2, align 8
  %3 = load ptr, ptr %2, align 8
  %4 = getelementptr inbounds nuw %"class.llvm::PointerIntPair.359", ptr %3, i32 0, i32 0
  %5 = call noundef i64 @_ZNK4llvm6detail13PunnedPointerIPN5clang17ObjCInterfaceDecl14DefinitionDataEEcvlEv(ptr noundef nonnull align 8 dereferenceable(8) %4)
  %6 = call noundef ptr @_ZN4llvm18PointerIntPairInfoIPN5clang17ObjCInterfaceDecl14DefinitionDataELj1ENS_21PointerLikeTypeTraitsIS4_EEE10getPointerEl(i64 noundef %5)
  ret ptr %6
}

; Function Attrs: mustprogress nounwind uwtable
define linkonce_odr hidden noundef ptr @_ZNK5clang17ObjCInterfaceDecl13getDefinitionEv(ptr noundef nonnull align 8 dereferenceable(128) %0) #0 comdat align 2 {
  %2 = alloca ptr, align 8
  store ptr %0, ptr %2, align 8
  %3 = load ptr, ptr %2, align 8
  %4 = call noundef zeroext i1 @_ZNK5clang17ObjCInterfaceDecl13hasDefinitionEv(ptr noundef nonnull align 8 dereferenceable(128) %3)
  br i1 %4, label %5, label %10

5:                                                ; preds = %1
  %6 = getelementptr inbounds nuw %"class.clang::ObjCInterfaceDecl", ptr %3, i32 0, i32 4
  %7 = call noundef ptr @_ZNK4llvm14PointerIntPairIPN5clang17ObjCInterfaceDecl14DefinitionDataELj1EbNS_21PointerLikeTypeTraitsIS4_EENS_18PointerIntPairInfoIS4_Lj1ES6_EEE10getPointerEv(ptr noundef nonnull align 8 dereferenceable(8) %6)
  %8 = getelementptr inbounds nuw %"struct.clang::ObjCInterfaceDecl::DefinitionData", ptr %7, i32 0, i32 0
  %9 = load ptr, ptr %8, align 8
  br label %11

10:                                               ; preds = %1
  br label %11

11:                                               ; preds = %10, %5
  %12 = phi ptr [ %9, %5 ], [ null, %10 ]
  ret ptr %12
}

; Function Attrs: mustprogress nounwind uwtable
define linkonce_odr hidden noundef nonnull align 8 dereferenceable(84) ptr @_ZNK5clang17ObjCInterfaceDecl4dataEv(ptr noundef nonnull align 8 dereferenceable(128) %0) #0 comdat align 2 {
  %2 = alloca ptr, align 8
  store ptr %0, ptr %2, align 8
  %3 = load ptr, ptr %2, align 8
  %4 = getelementptr inbounds nuw %"class.clang::ObjCInterfaceDecl", ptr %3, i32 0, i32 4
  %5 = call noundef ptr @_ZNK4llvm14PointerIntPairIPN5clang17ObjCInterfaceDecl14DefinitionDataELj1EbNS_21PointerLikeTypeTraitsIS4_EENS_18PointerIntPairInfoIS4_Lj1ES6_EEE10getPointerEv(ptr noundef nonnull align 8 dereferenceable(8) %4)
  ret ptr %5
}

; Function Attrs: mustprogress nounwind uwtable
define linkonce_odr hidden noundef zeroext i1 @_ZNK5clang17ObjCInterfaceDecl28isThisDeclarationADefinitionEv(ptr noundef nonnull align 8 dereferenceable(128) %0) #0 comdat align 2 {
  %2 = alloca ptr, align 8
  store ptr %0, ptr %2, align 8
  %3 = load ptr, ptr %2, align 8
  %4 = call noundef ptr @_ZNK5clang17ObjCInterfaceDecl13getDefinitionEv(ptr noundef nonnull align 8 dereferenceable(128) %3)
  %5 = icmp eq ptr %4, %3
  ret i1 %5
}

; Function Attrs: mustprogress nounwind uwtable
define dso_local void @_ZN5clang17ObjCInterfaceDecl28setHasDesignatedInitializersEv(ptr noundef nonnull align 8 dereferenceable(128) %0) #0 align 2 {
  %2 = alloca ptr, align 8
  store ptr %0, ptr %2, align 8
  %3 = load ptr, ptr %2, align 8
  %4 = call noundef zeroext i1 @_ZNK5clang17ObjCInterfaceDecl28isThisDeclarationADefinitionEv(ptr noundef nonnull align 8 dereferenceable(128) %3)
  br i1 %4, label %6, label %5

5:                                                ; preds = %1
  br label %12

6:                                                ; preds = %1
  %7 = call noundef nonnull align 8 dereferenceable(84) ptr @_ZNK5clang17ObjCInterfaceDecl4dataEv(ptr noundef nonnull align 8 dereferenceable(128) %3)
  %8 = getelementptr inbounds nuw %"struct.clang::ObjCInterfaceDecl::DefinitionData", ptr %7, i32 0, i32 6
  %9 = load i8, ptr %8, align 8
  %10 = and i8 %9, -5
  %11 = or i8 %10, 4
  store i8 %11, ptr %8, align 8
  br label %12

12:                                               ; preds = %6, %5
  ret void
}