; Function Attrs: mustprogress nounwind uwtable
define dso_local void @_ZN5clang17ObjCInterfaceDecl28setHasDesignatedInitializersEv(ptr noundef nonnull readonly align 8 dereferenceable(128) %0) local_unnamed_addr #0 align 2 {
  %2 = getelementptr inbounds nuw i8, ptr %0, i64 120
  %.0.copyload.i.i.i.i.i = load i64, ptr %2, align 8
  %.not.i.i.i = icmp eq i64 %.0.copyload.i.i.i.i.i, 0
  br i1 %.not.i.i.i, label %3, label %_ZNK5clang17ObjCInterfaceDecl13hasDefinitionEv.exit.i.i

3:                                                ; preds = %1
  %4 = getelementptr inbounds i8, ptr %0, i64 96
  %5 = load ptr, ptr %4, align 8
  %6 = getelementptr inbounds i8, ptr %5, i64 88
  %7 = tail call noundef ptr @_ZNK5clang12RedeclarableINS_17ObjCInterfaceDeclEE8DeclLink11getPreviousEPKS1_(ptr noundef nonnull align 8 dereferenceable(8) %6, ptr noundef nonnull %5)
  %.0.copyload.i.i.i.pre.i.i.i = load i64, ptr %2, align 8
  br label %_ZNK5clang17ObjCInterfaceDecl13hasDefinitionEv.exit.i.i

_ZNK5clang17ObjCInterfaceDecl13hasDefinitionEv.exit.i.i: ; preds = %3, %1
  %.0.copyload.i.i.i.i = phi i64 [ %.0.copyload.i.i.i.pre.i.i.i, %3 ], [ %.0.copyload.i.i.i.i.i, %1 ]
  %8 = icmp ugt i64 %.0.copyload.i.i.i.i, 7
  br i1 %8, label %_ZNK5clang17ObjCInterfaceDecl28isThisDeclarationADefinitionEv.exit, label %_ZNK5clang17ObjCInterfaceDecl28isThisDeclarationADefinitionEv.exit.thread

_ZNK5clang17ObjCInterfaceDecl28isThisDeclarationADefinitionEv.exit: ; preds = %_ZNK5clang17ObjCInterfaceDecl13hasDefinitionEv.exit.i.i
  %9 = and i64 %.0.copyload.i.i.i.i, -8
  %10 = inttoptr i64 %9 to ptr
  %11 = load ptr, ptr %10, align 8
  %12 = icmp eq ptr %11, %0
  br i1 %12, label %13, label %_ZNK5clang17ObjCInterfaceDecl28isThisDeclarationADefinitionEv.exit.thread

13:                                               ; preds = %_ZNK5clang17ObjCInterfaceDecl28isThisDeclarationADefinitionEv.exit
  %14 = getelementptr inbounds nuw i8, ptr %10, i64 72
  %15 = load i8, ptr %14, align 8
  %16 = or i8 %15, 4
  store i8 %16, ptr %14, align 8
  br label %_ZNK5clang17ObjCInterfaceDecl28isThisDeclarationADefinitionEv.exit.thread

_ZNK5clang17ObjCInterfaceDecl28isThisDeclarationADefinitionEv.exit.thread: ; preds = %_ZNK5clang17ObjCInterfaceDecl13hasDefinitionEv.exit.i.i, %_ZNK5clang17ObjCInterfaceDecl28isThisDeclarationADefinitionEv.exit, %13
  ret void
}